; Function Attrs: mustprogress nounwind uwtable
define hidden noundef zeroext i8 @_ZN8JVMCIEnv33get_VMIntrinsicMethod_isAvailableE11JVMCIObject(ptr noundef nonnull align 8 dereferenceable(64) %0, ptr %1, i8 %2) local_unnamed_addr #0 align 2 {
  %4 = getelementptr inbounds i8, ptr %0, i64 24
  %5 = load i8, ptr %4, align 8
  %6 = trunc i8 %5 to i1
  br i1 %6, label %7, label %10

7:                                                ; preds = %3
  %8 = tail call noundef ptr @_ZN12HotSpotJVMCI7resolveE11JVMCIObject(ptr %1, i8 %2) #14
  %9 = tail call noundef zeroext i8 @_ZN12HotSpotJVMCI17VMIntrinsicMethod11isAvailableEP8JVMCIEnvP7oopDesc(ptr noundef nonnull %0, ptr noundef %8) #14
  br label %12

10:                                               ; preds = %3
  %11 = tail call noundef zeroext i8 @_ZN8JNIJVMCI17VMIntrinsicMethod15get_isAvailableEP8JVMCIEnv11JVMCIObject(ptr noundef nonnull %0, ptr %1, i8 %2) #14
  br label %12

12:                                               ; preds = %10, %7
  %.0 = phi i8 [ %9, %7 ], [ %11, %10 ]
  ret i8 %.0
}